target datalayout = "e-m:e-p270:32:32-p271:32:32-p272:64:64-i64:64-i128:128-f80:128-n8:16:32:64-S128"
target triple = "x86_64-pc-linux-gnu"

%class.FactUnion = type <{ %class.Fact.base, [4 x i8], ptr, i32, [4 x i8] }>
%class.Fact.base = type <{ ptr, i32 }>
%class.Variable = type { ptr, %"class.std::vector", %"class.std::__cxx11::basic_string", ptr, ptr, i8, i8, i8, i8, i8, i8, ptr, i8, %class.CVQualifiers }
%"class.std::vector" = type { %"struct.std::_Vector_base" }
%"struct.std::_Vector_base" = type { %"struct.std::_Vector_base<Variable *, std::allocator<Variable *>>::_Vector_impl" }
%"struct.std::_Vector_base<Variable *, std::allocator<Variable *>>::_Vector_impl" = type { %"struct.std::_Vector_base<Variable *, std::allocator<Variable *>>::_Vector_impl_data" }
%"struct.std::_Vector_base<Variable *, std::allocator<Variable *>>::_Vector_impl_data" = type { ptr, ptr, ptr }
%"class.std::__cxx11::basic_string" = type { %"struct.std::__cxx11::basic_string<char>::_Alloc_hider", i64, %union.anon }
%"struct.std::__cxx11::basic_string<char>::_Alloc_hider" = type { ptr }
%union.anon = type { i64, [8 x i8] }
%class.CVQualifiers = type { ptr, i8, i8, %"class.std::vector.3", %"class.std::vector.3" }
%"class.std::vector.3" = type { %"struct.std::_Bvector_base" }
%"struct.std::_Bvector_base" = type { %"struct.std::_Bvector_base<std::allocator<bool>>::_Bvector_impl" }
%"struct.std::_Bvector_base<std::allocator<bool>>::_Bvector_impl" = type { %"struct.std::_Bvector_base<std::allocator<bool>>::_Bvector_impl_data" }
%"struct.std::_Bvector_base<std::allocator<bool>>::_Bvector_impl_data" = type { %"struct.std::_Bit_iterator", %"struct.std::_Bit_iterator", ptr }
%"struct.std::_Bit_iterator" = type { %"struct.std::_Bit_iterator_base.base", [4 x i8] }
%"struct.std::_Bit_iterator_base.base" = type <{ ptr, i32 }>
%class.Type = type { i32, ptr, i32, %"class.std::vector.27", %"class.std::vector.32", i32, i8, i8, i8, i8, i8, %"class.std::vector.37", %"class.std::vector.42" }
%"class.std::vector.27" = type { %"struct.std::_Vector_base.28" }
%"struct.std::_Vector_base.28" = type { %"struct.std::_Vector_base<unsigned int, std::allocator<unsigned int>>::_Vector_impl" }
%"struct.std::_Vector_base<unsigned int, std::allocator<unsigned int>>::_Vector_impl" = type { %"struct.std::_Vector_base<unsigned int, std::allocator<unsigned int>>::_Vector_impl_data" }
%"struct.std::_Vector_base<unsigned int, std::allocator<unsigned int>>::_Vector_impl_data" = type { ptr, ptr, ptr }
%"class.std::vector.32" = type { %"struct.std::_Vector_base.33" }
%"struct.std::_Vector_base.33" = type { %"struct.std::_Vector_base<const Type *, std::allocator<const Type *>>::_Vector_impl" }
%"struct.std::_Vector_base<const Type *, std::allocator<const Type *>>::_Vector_impl" = type { %"struct.std::_Vector_base<const Type *, std::allocator<const Type *>>::_Vector_impl_data" }
%"struct.std::_Vector_base<const Type *, std::allocator<const Type *>>::_Vector_impl_data" = type { ptr, ptr, ptr }
%"class.std::vector.37" = type { %"struct.std::_Vector_base.38" }
%"struct.std::_Vector_base.38" = type { %"struct.std::_Vector_base<CVQualifiers, std::allocator<CVQualifiers>>::_Vector_impl" }
%"struct.std::_Vector_base<CVQualifiers, std::allocator<CVQualifiers>>::_Vector_impl" = type { %"struct.std::_Vector_base<CVQualifiers, std::allocator<CVQualifiers>>::_Vector_impl_data" }
%"struct.std::_Vector_base<CVQualifiers, std::allocator<CVQualifiers>>::_Vector_impl_data" = type { ptr, ptr, ptr }
%"class.std::vector.42" = type { %"struct.std::_Vector_base.43" }
%"struct.std::_Vector_base.43" = type { %"struct.std::_Vector_base<int, std::allocator<int>>::_Vector_impl" }
%"struct.std::_Vector_base<int, std::allocator<int>>::_Vector_impl" = type { %"struct.std::_Vector_base<int, std::allocator<int>>::_Vector_impl_data" }
%"struct.std::_Vector_base<int, std::allocator<int>>::_Vector_impl_data" = type { ptr, ptr, ptr }

@_ZTI4Fact = external constant ptr
@_ZTI9FactUnion = dso_local constant { ptr, ptr, ptr } { ptr getelementptr inbounds (ptr, ptr @_ZTVN10__cxxabiv120__si_class_type_infoE, i64 2), ptr @_ZTS9FactUnion, ptr @_ZTI4Fact }, align 8
@_ZN9FactUnionC1EPK8Variablei = dso_local unnamed_addr alias void (ptr, ptr, i32), ptr @_ZN9FactUnionC2EPK8Variablei

; Function Attrs: mustprogress uwtable
define dso_local noundef zeroext i1 @_ZNK9FactUnion5implyERK4Fact(ptr noundef nonnull align 8 dereferenceable(28) %0, ptr noundef nonnull align 8 dereferenceable(12) %1) unnamed_addr #4 align 2 {
  %3 = alloca i1, align 1
  %4 = alloca ptr, align 8
  %5 = alloca ptr, align 8
  %6 = alloca ptr, align 8
  %7 = alloca i32, align 4
  store ptr %0, ptr %4, align 8, !tbaa !4
  store ptr %1, ptr %5, align 8, !tbaa !92
  %8 = load ptr, ptr %4, align 8
  %9 = load ptr, ptr %5, align 8, !tbaa !92
  %10 = load ptr, ptr %8, align 8, !tbaa !11
  %11 = getelementptr inbounds ptr, ptr %10, i64 11
  %12 = load ptr, ptr %11, align 8
  %13 = call noundef zeroext i1 %12(ptr noundef nonnull align 8 dereferenceable(12) %8, ptr noundef nonnull align 8 dereferenceable(12) %9)
  br i1 %13, label %14, label %39

14:                                               ; preds = %2
  %15 = load ptr, ptr %8, align 8, !tbaa !11
  %16 = getelementptr inbounds ptr, ptr %15, i64 7
  %17 = load ptr, ptr %16, align 8
  %18 = call noundef zeroext i1 %17(ptr noundef nonnull align 8 dereferenceable(28) %8)
  br i1 %18, label %19, label %20

19:                                               ; preds = %14
  store i1 true, ptr %3, align 1
  br label %40

20:                                               ; preds = %14
  call void @llvm.lifetime.start.p0(i64 8, ptr %6) #3
  %21 = load ptr, ptr %5, align 8, !tbaa !92
  store ptr %21, ptr %6, align 8, !tbaa !4
  %22 = load ptr, ptr %6, align 8, !tbaa !4
  %23 = load ptr, ptr %22, align 8, !tbaa !11
  %24 = getelementptr inbounds ptr, ptr %23, i64 7
  %25 = load ptr, ptr %24, align 8
  %26 = call noundef zeroext i1 %25(ptr noundef nonnull align 8 dereferenceable(28) %22)
  br i1 %26, label %27, label %28

27:                                               ; preds = %20
  store i1 false, ptr %3, align 1
  store i32 1, ptr %7, align 4
  br label %36

28:                                               ; preds = %20
  %29 = load ptr, ptr %6, align 8, !tbaa !4
  %30 = load ptr, ptr %8, align 8, !tbaa !11
  %31 = getelementptr inbounds ptr, ptr %30, i64 12
  %32 = load ptr, ptr %31, align 8
  %33 = call noundef zeroext i1 %32(ptr noundef nonnull align 8 dereferenceable(28) %8, ptr noundef nonnull align 8 dereferenceable(12) %29)
  br i1 %33, label %34, label %35

34:                                               ; preds = %28
  store i1 true, ptr %3, align 1
  store i32 1, ptr %7, align 4
  br label %36

35:                                               ; preds = %28
  store i32 0, ptr %7, align 4
  br label %36

36:                                               ; preds = %35, %34, %27
  call void @llvm.lifetime.end.p0(i64 8, ptr %6) #3
  %37 = load i32, ptr %7, align 4
  switch i32 %37, label %42 [
    i32 0, label %38
    i32 1, label %40
  ]

38:                                               ; preds = %36
  br label %39

39:                                               ; preds = %38, %2
  store i1 false, ptr %3, align 1
  br label %40

40:                                               ; preds = %39, %36, %19
  %41 = load i1, ptr %3, align 1
  ret i1 %41

42:                                               ; preds = %36
  unreachable
}

; Function Attrs: mustprogress nounwind uwtable
define linkonce_odr dso_local noundef zeroext i1 @_ZNK8Variable14is_union_fieldEv(ptr noundef nonnull align 8 dereferenceable(200) %0) #5 comdat align 2 {
  %2 = alloca ptr, align 8
  store ptr %0, ptr %2, align 8, !tbaa !9
  %3 = load ptr, ptr %2, align 8
  %4 = getelementptr inbounds nuw %class.Variable, ptr %3, i32 0, i32 11
  %5 = load ptr, ptr %4, align 8, !tbaa !134
  %6 = icmp ne ptr %5, null
  br i1 %6, label %7, label %15

7:                                                ; preds = %1
  %8 = getelementptr inbounds nuw %class.Variable, ptr %3, i32 0, i32 11
  %9 = load ptr, ptr %8, align 8, !tbaa !134
  %10 = getelementptr inbounds nuw %class.Variable, ptr %9, i32 0, i32 3
  %11 = load ptr, ptr %10, align 8, !tbaa !20
  %12 = getelementptr inbounds nuw %class.Type, ptr %11, i32 0, i32 0
  %13 = load i32, ptr %12, align 8, !tbaa !111
  %14 = icmp eq i32 %13, 2
  br label %15

15:                                               ; preds = %7, %1
  %16 = phi i1 [ false, %1 ], [ %14, %7 ]
  ret i1 %16
}

; Function Attrs: mustprogress uwtable
define linkonce_odr dso_local noundef zeroext i1 @_ZNK8Variable21is_inside_union_fieldEv(ptr noundef nonnull align 8 dereferenceable(200) %0) #4 comdat align 2 {
  %2 = alloca ptr, align 8
  store ptr %0, ptr %2, align 8, !tbaa !9
  %3 = load ptr, ptr %2, align 8
  %4 = call noundef zeroext i1 @_ZNK8Variable14is_union_fieldEv(ptr noundef nonnull align 8 dereferenceable(200) %3)
  br i1 %4, label %15, label %5

5:                                                ; preds = %1
  %6 = getelementptr inbounds nuw %class.Variable, ptr %3, i32 0, i32 11
  %7 = load ptr, ptr %6, align 8, !tbaa !134
  %8 = icmp ne ptr %7, null
  br i1 %8, label %9, label %13

9:                                                ; preds = %5
  %10 = getelementptr inbounds nuw %class.Variable, ptr %3, i32 0, i32 11
  %11 = load ptr, ptr %10, align 8, !tbaa !134
  %12 = call noundef zeroext i1 @_ZNK8Variable21is_inside_union_fieldEv(ptr noundef nonnull align 8 dereferenceable(200) %11)
  br label %13

13:                                               ; preds = %9, %5
  %14 = phi i1 [ false, %5 ], [ %12, %9 ]
  br label %15

15:                                               ; preds = %13, %1
  %16 = phi i1 [ true, %1 ], [ %14, %13 ]
  ret i1 %16
}

; Function Attrs: mustprogress uwtable
define dso_local noundef zeroext i1 @_ZN9FactUnion20is_nonreadable_fieldEPK8VariableRKSt6vectorIPK4FactSaIS6_EE(ptr noundef %0, ptr noundef nonnull align 8 dereferenceable(24) %1) #4 align 2 personality ptr @__gxx_personality_v0 {
  %3 = alloca i1, align 1
  %4 = alloca ptr, align 8
  %5 = alloca ptr, align 8
  %6 = alloca %class.FactUnion, align 8
  %7 = alloca ptr, align 8
  %8 = alloca ptr, align 8
  %9 = alloca i32, align 4
  %10 = alloca i32, align 4
  store ptr %0, ptr %4, align 8, !tbaa !9
  store ptr %1, ptr %5, align 8, !tbaa !46
  %11 = load ptr, ptr %4, align 8, !tbaa !9
  %12 = call noundef zeroext i1 @_ZNK8Variable21is_inside_union_fieldEv(ptr noundef nonnull align 8 dereferenceable(200) %11)
  br i1 %12, label %13, label %58

13:                                               ; preds = %2
  br label %14

14:                                               ; preds = %24, %13
  %15 = load ptr, ptr %4, align 8, !tbaa !9
  %16 = icmp ne ptr %15, null
  br i1 %16, label %17, label %21

17:                                               ; preds = %14
  %18 = load ptr, ptr %4, align 8, !tbaa !9
  %19 = call noundef zeroext i1 @_ZNK8Variable14is_union_fieldEv(ptr noundef nonnull align 8 dereferenceable(200) %18)
  %20 = xor i1 %19, true
  br label %21

21:                                               ; preds = %17, %14
  %22 = phi i1 [ false, %14 ], [ %20, %17 ]
  br i1 %22, label %23, label %28

23:                                               ; preds = %21
  br label %24

24:                                               ; preds = %23
  %25 = load ptr, ptr %4, align 8, !tbaa !9
  %26 = getelementptr inbounds nuw %class.Variable, ptr %25, i32 0, i32 11
  %27 = load ptr, ptr %26, align 8, !tbaa !134
  store ptr %27, ptr %4, align 8, !tbaa !9
  br label %14, !llvm.loop !142

28:                                               ; preds = %21
  call void @llvm.lifetime.start.p0(i64 32, ptr %6) #3
  %29 = load ptr, ptr %4, align 8, !tbaa !9
  %30 = getelementptr inbounds nuw %class.Variable, ptr %29, i32 0, i32 11
  %31 = load ptr, ptr %30, align 8, !tbaa !134
  %32 = load ptr, ptr %4, align 8, !tbaa !9
  %33 = call noundef i32 @_ZNK8Variable12get_field_idEv(ptr noundef nonnull align 8 dereferenceable(200) %32)
  call void @_ZN9FactUnionC1EPK8Variablei(ptr noundef nonnull align 8 dereferenceable(28) %6, ptr noundef %31, i32 noundef %33)
  call void @llvm.lifetime.start.p0(i64 8, ptr %7) #3
  %34 = load ptr, ptr %5, align 8, !tbaa !46
  %35 = invoke noundef ptr @_Z17find_related_factRKSt6vectorIPK4FactSaIS2_EES2_(ptr noundef nonnull align 8 dereferenceable(24) %34, ptr noundef %6)
          to label %36 unwind label %40

36:                                               ; preds = %28
  %37 = icmp eq ptr %35, null
  br i1 %37, label %44, label %38

38:                                               ; preds = %36
  %39 = call ptr @__dynamic_cast(ptr %35, ptr @_ZTI4Fact, ptr @_ZTI9FactUnion, i64 0) #3
  br label %45

40:                                               ; preds = %49, %28
  %41 = landingpad { ptr, i32 }
          cleanup
  %42 = extractvalue { ptr, i32 } %41, 0
  store ptr %42, ptr %8, align 8
  %43 = extractvalue { ptr, i32 } %41, 1
  store i32 %43, ptr %9, align 4
  call void @llvm.lifetime.end.p0(i64 8, ptr %7) #3
  call void @_ZN4FactD2Ev(ptr noundef nonnull align 8 dereferenceable(28) %6) #3
  call void @llvm.lifetime.end.p0(i64 32, ptr %6) #3
  br label %61

44:                                               ; preds = %36
  br label %45

45:                                               ; preds = %44, %38
  %46 = phi ptr [ %39, %38 ], [ null, %44 ]
  store ptr %46, ptr %7, align 8, !tbaa !4
  %47 = load ptr, ptr %7, align 8, !tbaa !4
  %48 = icmp eq ptr %47, null
  br i1 %48, label %53, label %49

49:                                               ; preds = %45
  %50 = load ptr, ptr %7, align 8, !tbaa !4
  %51 = invoke noundef zeroext i1 @_ZNK9FactUnion5implyERK4Fact(ptr noundef nonnull align 8 dereferenceable(28) %6, ptr noundef nonnull align 8 dereferenceable(12) %50)
          to label %52 unwind label %40

52:                                               ; preds = %49
  br i1 %51, label %54, label %53

53:                                               ; preds = %52, %45
  store i1 true, ptr %3, align 1
  store i32 1, ptr %10, align 4
  br label %55

54:                                               ; preds = %52
  store i32 0, ptr %10, align 4
  br label %55

55:                                               ; preds = %54, %53
  call void @llvm.lifetime.end.p0(i64 8, ptr %7) #3
  call void @_ZN4FactD2Ev(ptr noundef nonnull align 8 dereferenceable(28) %6) #3
  call void @llvm.lifetime.end.p0(i64 32, ptr %6) #3
  %56 = load i32, ptr %10, align 4
  switch i32 %56, label %66 [
    i32 0, label %57
    i32 1, label %59
  ]

57:                                               ; preds = %55
  br label %58

58:                                               ; preds = %57, %2
  store i1 false, ptr %3, align 1
  br label %59

59:                                               ; preds = %58, %55
  %60 = load i1, ptr %3, align 1
  ret i1 %60

61:                                               ; preds = %40
  %62 = load ptr, ptr %8, align 8
  %63 = load i32, ptr %9, align 4
  %64 = insertvalue { ptr, i32 } poison, ptr %62, 0
  %65 = insertvalue { ptr, i32 } %64, i32 %63, 1
  resume { ptr, i32 } %65

66:                                               ; preds = %55
  unreachable
}