; Function Attrs: mustprogress uwtable
define dso_local noundef zeroext i1 @_ZN9FactUnion20is_nonreadable_fieldEPK8VariableRKSt6vectorIPK4FactSaIS6_EE(ptr noundef %0, ptr noundef nonnull align 8 dereferenceable(24) %1) local_unnamed_addr #3 align 2 personality ptr @__gxx_personality_v0 {
  %3 = alloca %class.FactUnion, align 8
  br label %tailrecurse.i

tailrecurse.i:                                    ; preds = %_ZNK8Variable14is_union_fieldEv.exit.i, %2
  %.tr.i = phi ptr [ %0, %2 ], [ %5, %_ZNK8Variable14is_union_fieldEv.exit.i ]
  %4 = getelementptr inbounds nuw i8, ptr %.tr.i, i64 88
  %5 = load ptr, ptr %4, align 8, !tbaa !113
  %.not.i.not.not.i.not = icmp eq ptr %5, null
  br i1 %.not.i.not.not.i.not, label %_ZNK8Variable21is_inside_union_fieldEv.exit.thread, label %_ZNK8Variable14is_union_fieldEv.exit.i

_ZNK8Variable14is_union_fieldEv.exit.i:           ; preds = %tailrecurse.i
  %6 = getelementptr inbounds nuw i8, ptr %5, i64 64
  %7 = load ptr, ptr %6, align 8, !tbaa !20
  %8 = load i32, ptr %7, align 8, !tbaa !90
  %9 = icmp eq i32 %8, 2
  br i1 %9, label %_ZNK8Variable21is_inside_union_fieldEv.exit.preheader, label %tailrecurse.i

_ZNK8Variable21is_inside_union_fieldEv.exit.preheader: ; preds = %_ZNK8Variable14is_union_fieldEv.exit.i
  %.not24 = icmp ne ptr %0, null
  tail call void @llvm.assume(i1 %.not24)
  br label %.lr.ph

.lr.ph:                                           ; preds = %_ZNK8Variable21is_inside_union_fieldEv.exit.preheader, %.lr.ph
  %.01325 = phi ptr [ %0, %_ZNK8Variable21is_inside_union_fieldEv.exit.preheader ], [ %11, %.lr.ph ]
  %10 = getelementptr inbounds nuw i8, ptr %.01325, i64 88
  %11 = load ptr, ptr %10, align 8, !tbaa !113, !nonnull !119, !noundef !119
  %12 = getelementptr inbounds nuw i8, ptr %11, i64 64
  %13 = load ptr, ptr %12, align 8, !tbaa !20
  %14 = load i32, ptr %13, align 8, !tbaa !90
  %15 = icmp eq i32 %14, 2
  br i1 %15, label %.critedge, label %.lr.ph

.critedge:                                        ; preds = %.lr.ph
  call void @llvm.lifetime.start.p0(i64 32, ptr nonnull %3) #15
  %16 = getelementptr inbounds nuw i8, ptr %.01325, i64 88
  %17 = load ptr, ptr %16, align 8, !tbaa !113
  %18 = tail call noundef i32 @_ZNK8Variable12get_field_idEv(ptr noundef nonnull align 8 dereferenceable(200) %.01325)
  call void @_ZN4FactC2E13eFactCategory(ptr noundef nonnull align 8 dereferenceable(28) %3, i32 noundef 2)
  store ptr getelementptr inbounds nuw inrange(-16, 152) (i8, ptr @_ZTV9FactUnion, i64 16), ptr %3, align 8, !tbaa !4
  %19 = getelementptr inbounds nuw i8, ptr %3, i64 16
  store ptr %17, ptr %19, align 8, !tbaa !7
  %20 = getelementptr inbounds nuw i8, ptr %3, i64 24
  store i32 %18, ptr %20, align 8, !tbaa !15
  %21 = invoke noundef ptr @_Z17find_related_factRKSt6vectorIPK4FactSaIS2_EES2_(ptr noundef nonnull align 8 dereferenceable(24) %1, ptr noundef nonnull %3)
          to label %22 unwind label %24

22:                                               ; preds = %.critedge
  %23 = icmp eq ptr %21, null
  br i1 %23, label %_ZNK8Variable21is_inside_union_fieldEv.exit.thread.sink.split, label %26

24:                                               ; preds = %44, %39, %34, %29, %.critedge
  %25 = landingpad { ptr, i32 }
          cleanup
  call void @_ZN4FactD2Ev(ptr noundef nonnull align 8 dereferenceable(28) %3) #15
  call void @llvm.lifetime.end.p0(i64 32, ptr nonnull %3) #15
  resume { ptr, i32 } %25

26:                                               ; preds = %22
  %27 = call ptr @__dynamic_cast(ptr nonnull %21, ptr nonnull @_ZTI4Fact, ptr nonnull @_ZTI9FactUnion, i64 0) #15
  %28 = icmp eq ptr %27, null
  br i1 %28, label %_ZNK8Variable21is_inside_union_fieldEv.exit.thread.sink.split, label %29

29:                                               ; preds = %26
  %30 = load ptr, ptr %3, align 8, !tbaa !4
  %31 = getelementptr inbounds nuw i8, ptr %30, i64 88
  %32 = load ptr, ptr %31, align 8
  %33 = invoke noundef zeroext i1 %32(ptr noundef nonnull align 8 dereferenceable(28) %3, ptr noundef nonnull align 8 dereferenceable(12) %27)
          to label %.noexc unwind label %24

.noexc:                                           ; preds = %29
  br i1 %33, label %34, label %_ZNK8Variable21is_inside_union_fieldEv.exit.thread.sink.split

34:                                               ; preds = %.noexc
  %35 = load ptr, ptr %3, align 8, !tbaa !4
  %36 = getelementptr inbounds nuw i8, ptr %35, i64 56
  %37 = load ptr, ptr %36, align 8
  %38 = invoke noundef zeroext i1 %37(ptr noundef nonnull align 8 dereferenceable(28) %3)
          to label %.noexc16 unwind label %24

.noexc16:                                         ; preds = %34
  br i1 %38, label %_ZNK9FactUnion5implyERK4Fact.exit, label %39

39:                                               ; preds = %.noexc16
  %40 = load ptr, ptr %27, align 8, !tbaa !4
  %41 = getelementptr inbounds nuw i8, ptr %40, i64 56
  %42 = load ptr, ptr %41, align 8
  %43 = invoke noundef zeroext i1 %42(ptr noundef nonnull align 8 dereferenceable(28) %27)
          to label %.noexc17 unwind label %24

.noexc17:                                         ; preds = %39
  br i1 %43, label %_ZNK8Variable21is_inside_union_fieldEv.exit.thread.sink.split, label %44

44:                                               ; preds = %.noexc17
  %45 = load ptr, ptr %3, align 8, !tbaa !4
  %46 = getelementptr inbounds nuw i8, ptr %45, i64 96
  %47 = load ptr, ptr %46, align 8
  %48 = invoke noundef zeroext i1 %47(ptr noundef nonnull align 8 dereferenceable(28) %3, ptr noundef nonnull align 8 dereferenceable(12) %27)
          to label %.noexc18 unwind label %24

.noexc18:                                         ; preds = %44
  br i1 %48, label %_ZNK9FactUnion5implyERK4Fact.exit, label %_ZNK8Variable21is_inside_union_fieldEv.exit.thread.sink.split

_ZNK9FactUnion5implyERK4Fact.exit:                ; preds = %.noexc18, %.noexc16
  br label %_ZNK8Variable21is_inside_union_fieldEv.exit.thread.sink.split

_ZNK8Variable21is_inside_union_fieldEv.exit.thread.sink.split: ; preds = %.noexc, %.noexc18, %22, %.noexc17, %26, %_ZNK9FactUnion5implyERK4Fact.exit
  %.1.ph = phi i1 [ false, %_ZNK9FactUnion5implyERK4Fact.exit ], [ true, %26 ], [ true, %.noexc17 ], [ true, %22 ], [ true, %.noexc18 ], [ true, %.noexc ]
  call void @_ZN4FactD2Ev(ptr noundef nonnull align 8 dereferenceable(28) %3) #15
  call void @llvm.lifetime.end.p0(i64 32, ptr nonnull %3) #15
  br label %_ZNK8Variable21is_inside_union_fieldEv.exit.thread

_ZNK8Variable21is_inside_union_fieldEv.exit.thread: ; preds = %tailrecurse.i, %_ZNK8Variable21is_inside_union_fieldEv.exit.thread.sink.split
  %.1 = phi i1 [ %.1.ph, %_ZNK8Variable21is_inside_union_fieldEv.exit.thread.sink.split ], [ false, %tailrecurse.i ]
  ret i1 %.1
}